target datalayout = "e-m:e-p270:32:32-p271:32:32-p272:64:64-i64:64-i128:128-f80:128-n8:16:32:64-S128"
target triple = "x86_64-unknown-linux-gnu"

%"class.duckdb::unique_ptr" = type { %"class.std::unique_ptr" }
%"class.std::unique_ptr" = type { %"struct.std::__uniq_ptr_data" }
%"struct.std::__uniq_ptr_data" = type { %"class.std::__uniq_ptr_impl" }
%"class.std::__uniq_ptr_impl" = type { %"class.std::tuple" }
%"class.std::tuple" = type { %"struct.std::_Tuple_impl" }
%"struct.std::_Tuple_impl" = type { %"struct.std::_Head_base.1" }
%"struct.std::_Head_base.1" = type { ptr }
%"class.duckdb::unique_ptr.325" = type { %"class.std::unique_ptr.326" }
%"class.std::unique_ptr.326" = type { %"struct.std::__uniq_ptr_data.327" }
%"struct.std::__uniq_ptr_data.327" = type { %"class.std::__uniq_ptr_impl.328" }
%"class.std::__uniq_ptr_impl.328" = type { %"class.std::tuple.329" }
%"class.std::tuple.329" = type { %"struct.std::_Tuple_impl.330" }
%"struct.std::_Tuple_impl.330" = type { %"struct.std::_Head_base.333" }
%"struct.std::_Head_base.333" = type { ptr }

; Function Attrs: mustprogress uwtable
define void @_ZN6duckdb21PhysicalPlanGenerator10CreatePlanERNS_20LogicalColumnDataGetE(ptr dead_on_unwind noalias nocapture writable writeonly sret(%"class.duckdb::unique_ptr") align 8 %agg.result, ptr nocapture noundef nonnull readnone align 8 dereferenceable(176) %this, ptr noundef nonnull align 8 dereferenceable(144) %op) local_unnamed_addr #0 align 2 personality ptr @__gxx_personality_v0 {
_ZNSt10unique_ptrIN6duckdb22PhysicalColumnDataScanESt14default_deleteIS1_EED2Ev.exit:
  %chunk_scan = alloca %"class.duckdb::unique_ptr.325", align 8
  %ref.tmp = alloca i8, align 1
  call void @llvm.lifetime.start.p0(i64 8, ptr nonnull %chunk_scan) #20
  %types = getelementptr inbounds i8, ptr %op, i64 64
  call void @llvm.lifetime.start.p0(i64 1, ptr nonnull %ref.tmp) #20
  store i8 23, ptr %ref.tmp, align 1, !tbaa !298
  %estimated_cardinality = getelementptr inbounds i8, ptr %op, i64 88
  %collection = getelementptr inbounds i8, ptr %op, i64 136
  call void @_ZN6duckdb9make_uniqINS_22PhysicalColumnDataScanEJRNS_6vectorINS_11LogicalTypeELb1EEENS_20PhysicalOperatorTypeERmNS_10unique_ptrINS_20ColumnDataCollectionESt14default_deleteIS9_ELb1EEEEEENS_11__unique_ifIT_Lb1EE15__unique_singleEDpOT0_(ptr dead_on_unwind nonnull writable sret(%"class.duckdb::unique_ptr.325") align 8 %chunk_scan, ptr noundef nonnull align 8 dereferenceable(24) %types, ptr noundef nonnull align 1 dereferenceable(1) %ref.tmp, ptr noundef nonnull align 8 dereferenceable(8) %estimated_cardinality, ptr noundef nonnull align 8 dereferenceable(8) %collection)
  call void @llvm.lifetime.end.p0(i64 1, ptr nonnull %ref.tmp) #20
  %0 = load ptr, ptr %chunk_scan, align 8, !tbaa !8
  store ptr %0, ptr %agg.result, align 8, !tbaa !3
  call void @llvm.lifetime.end.p0(i64 8, ptr nonnull %chunk_scan) #20
  ret void
}